; Function Attrs: mustprogress nofree nounwind willreturn memory(write, argmem: none, inaccessiblemem: readwrite) uwtable
define noundef ptr @_ZN10duckdb_lz410LZ4_createEPc(ptr noundef readnone captures(none) %0) local_unnamed_addr #4 {
  %2 = tail call noalias dereferenceable_or_null(16416) ptr @malloc(i64 noundef 16416) #19
  %3 = icmp ne ptr %2, null
  %4 = ptrtoint ptr %2 to i64
  %5 = and i64 %4, 7
  %.not.i.i = icmp eq i64 %5, 0
  %or.cond.i = and i1 %3, %.not.i.i
  br i1 %or.cond.i, label %6, label %_ZN10duckdb_lz416LZ4_createStreamEv.exit

6:                                                ; preds = %1
  tail call void @llvm.memset.p0.i64(ptr noundef nonnull align 1 dereferenceable(16416) %2, i8 0, i64 16416, i1 false)
  br label %_ZN10duckdb_lz416LZ4_createStreamEv.exit

_ZN10duckdb_lz416LZ4_createStreamEv.exit:         ; preds = %1, %6
  ret ptr %2
}